; Function Attrs: mustprogress uwtable
define hidden void @_ZN15value_generator9get_valueEP4sortj(ptr dead_on_unwind noalias writable sret(%class.obj_ref) align 8 %0, ptr noundef nonnull align 8 dereferenceable(16) %1, ptr noundef %2, i32 noundef %3) local_unnamed_addr #4 align 2 {
  tail call void @_ZN15value_generator4initEv(ptr noundef nonnull align 8 dereferenceable(16) %1)
  %5 = getelementptr inbounds nuw i8, ptr %2, i64 24
  %6 = load ptr, ptr %5, align 8, !tbaa !88
  %7 = icmp eq ptr %6, null
  br i1 %7, label %_ZNK4decl13get_family_idEv.exit, label %8

8:                                                ; preds = %4
  %9 = load i32, ptr %6, align 8, !tbaa !92
  br label %_ZNK4decl13get_family_idEv.exit

_ZNK4decl13get_family_idEv.exit:                  ; preds = %4, %8
  %10 = phi i32 [ %9, %8 ], [ -1, %4 ]
  %11 = getelementptr inbounds nuw i8, ptr %1, i64 8
  %12 = load ptr, ptr %11, align 8, !tbaa !8
  %13 = icmp eq ptr %12, null
  br i1 %13, label %_ZNK17scoped_ptr_vectorI20value_generator_coreE3getEjPS0_.exit.thread, label %_ZNK6vectorIP20value_generator_coreLb0EjE4sizeEv.exit.i

_ZNK6vectorIP20value_generator_coreLb0EjE4sizeEv.exit.i: ; preds = %_ZNK4decl13get_family_idEv.exit
  %14 = getelementptr inbounds i8, ptr %12, i64 -4
  %15 = load i32, ptr %14, align 4, !tbaa !12
  %16 = icmp ult i32 %10, %15
  br i1 %16, label %_ZNK17scoped_ptr_vectorI20value_generator_coreE3getEjPS0_.exit, label %_ZNK17scoped_ptr_vectorI20value_generator_coreE3getEjPS0_.exit.thread

_ZNK17scoped_ptr_vectorI20value_generator_coreE3getEjPS0_.exit: ; preds = %_ZNK6vectorIP20value_generator_coreLb0EjE4sizeEv.exit.i
  %17 = zext i32 %10 to i64
  %18 = getelementptr inbounds nuw ptr, ptr %12, i64 %17
  %19 = load ptr, ptr %18, align 8, !tbaa !20
  %.not = icmp eq ptr %19, null
  br i1 %.not, label %_ZNK17scoped_ptr_vectorI20value_generator_coreE3getEjPS0_.exit.thread, label %20

20:                                               ; preds = %_ZNK17scoped_ptr_vectorI20value_generator_coreE3getEjPS0_.exit
  %21 = load ptr, ptr %19, align 8, !tbaa !18
  %22 = getelementptr inbounds nuw i8, ptr %21, i64 24
  %23 = load ptr, ptr %22, align 8
  tail call void %23(ptr dead_on_unwind writable sret(%class.obj_ref) align 8 %0, ptr noundef nonnull align 8 dereferenceable(8) %19, ptr noundef nonnull %2, i32 noundef %3)
  br label %_ZN7obj_refI4expr11ast_managerEC2EPS0_RS1_.exit

_ZNK17scoped_ptr_vectorI20value_generator_coreE3getEjPS0_.exit.thread: ; preds = %_ZNK4decl13get_family_idEv.exit, %_ZNK6vectorIP20value_generator_coreLb0EjE4sizeEv.exit.i, %_ZNK17scoped_ptr_vectorI20value_generator_coreE3getEjPS0_.exit
  %24 = load ptr, ptr %1, align 8, !tbaa !14
  %25 = getelementptr inbounds nuw i8, ptr %2, i64 16
  %26 = tail call noundef ptr @_ZN11ast_manager18mk_fresh_func_declERK6symbolS2_jPKP4sortS4_b(ptr noundef nonnull align 8 dereferenceable(976) %24, ptr noundef nonnull align 8 dereferenceable(8) %25, ptr noundef nonnull align 8 dereferenceable(8) @_ZN6symbol4nullE, i32 noundef 0, ptr noundef null, ptr noundef nonnull %2, i1 noundef zeroext true)
  %27 = tail call noundef ptr @_ZN11ast_manager6mk_appEP9func_decljPKP4expr(ptr noundef nonnull align 8 dereferenceable(976) %24, ptr noundef %26, i32 noundef 0, ptr noundef null)
  %28 = load ptr, ptr %1, align 8, !tbaa !14
  store ptr %27, ptr %0, align 8, !tbaa !96
  %29 = getelementptr inbounds nuw i8, ptr %0, i64 8
  store ptr %28, ptr %29, align 8, !tbaa !3
  %.not.i.i = icmp eq ptr %27, null
  br i1 %.not.i.i, label %_ZN7obj_refI4expr11ast_managerEC2EPS0_RS1_.exit, label %_ZN11ast_manager7inc_refEP3ast.exit.i.i

_ZN11ast_manager7inc_refEP3ast.exit.i.i:          ; preds = %_ZNK17scoped_ptr_vectorI20value_generator_coreE3getEjPS0_.exit.thread
  %30 = getelementptr inbounds nuw i8, ptr %27, i64 8
  %31 = load i32, ptr %30, align 4, !tbaa !99
  %32 = add i32 %31, 1
  store i32 %32, ptr %30, align 4, !tbaa !99
  br label %_ZN7obj_refI4expr11ast_managerEC2EPS0_RS1_.exit

_ZN7obj_refI4expr11ast_managerEC2EPS0_RS1_.exit:  ; preds = %_ZN11ast_manager7inc_refEP3ast.exit.i.i, %_ZNK17scoped_ptr_vectorI20value_generator_coreE3getEjPS0_.exit.thread, %20
  ret void
}